; Function Attrs: mustprogress uwtable
define internal fastcc void @_ZN4ncnnL37conv3x3s1_winograd43_transform_kernelERKNS_3MatERS0_iiRKNS_6OptionE(ptr noundef nonnull align 8 dereferenceable(72) %0, ptr noundef nonnull align 8 dereferenceable(72) %1, i32 noundef %2, i32 noundef %3, ptr noundef nonnull readonly align 8 captures(none) dereferenceable(64) %4) unnamed_addr #2 personality ptr @__gxx_personality_v0 {
  %6 = alloca i32, align 4
  %7 = alloca i32, align 4
  %8 = alloca i32, align 4
  %9 = alloca i32, align 4
  %10 = alloca i32, align 4
  %11 = alloca i32, align 4
  %12 = alloca i32, align 4
  %13 = alloca %"class.ncnn::Mat", align 8
  %14 = tail call i32 @__kmpc_global_thread_num(ptr nonnull @2)
  store i32 %2, ptr %6, align 4, !tbaa !75
  call void @llvm.lifetime.start.p0(i64 4, ptr nonnull %7) #11
  store i32 %3, ptr %7, align 4, !tbaa !75
  call void @llvm.lifetime.start.p0(i64 4, ptr nonnull %8) #11
  store i32 %2, ptr %8, align 4, !tbaa !75
  call void @llvm.lifetime.start.p0(i64 4, ptr nonnull %9) #11
  call void @llvm.lifetime.start.p0(i64 4, ptr nonnull %10) #11
  call void @llvm.lifetime.start.p0(i64 4, ptr nonnull %11) #11
  %15 = getelementptr inbounds nuw i8, ptr %4, i64 4
  %16 = load i32, ptr %15, align 4, !tbaa !40
  call fastcc void @_ZN4ncnnL20get_optimal_tile_mnkEiiiRiS0_S0_i(i32 noundef %3, i32 noundef 0, i32 noundef %2, ptr noundef nonnull align 4 dereferenceable(4) %9, ptr noundef nonnull align 4 dereferenceable(4) %10, ptr noundef nonnull align 4 dereferenceable(4) %11, i32 noundef %16)
  call void @llvm.lifetime.start.p0(i64 4, ptr nonnull %12) #11
  %17 = load i32, ptr %9, align 4, !tbaa !75
  %18 = add i32 %3, -1
  %19 = add i32 %18, %17
  %20 = sdiv i32 %19, %17
  store i32 %20, ptr %12, align 4, !tbaa !75
  call void @llvm.lifetime.start.p0(i64 72, ptr nonnull %13) #11
  %21 = mul nsw i32 %17, 36
  %22 = load i32, ptr %11, align 4, !tbaa !75
  %23 = mul nsw i32 %21, %22
  %24 = load i32, ptr %15, align 4, !tbaa !40
  %25 = getelementptr inbounds nuw i8, ptr %13, i64 8
  %26 = getelementptr inbounds nuw i8, ptr %13, i64 32
  %27 = getelementptr inbounds nuw i8, ptr %13, i64 64
  store i64 0, ptr %27, align 8, !tbaa !17
  call void @llvm.memset.p0.i64(ptr noundef nonnull align 8 dereferenceable(28) %13, i8 0, i64 28, i1 false)
  call void @llvm.memset.p0.i64(ptr noundef nonnull align 8 dereferenceable(28) %26, i8 0, i64 28, i1 false)
  call void @_ZN4ncnn3Mat6createEiiimPNS_9AllocatorE(ptr noundef nonnull align 8 dereferenceable(72) %13, i32 noundef %23, i32 noundef 1, i32 noundef %24, i64 noundef 4, ptr noundef null)
  %28 = mul nsw i32 %17, %22
  %29 = add i32 %22, -1
  %30 = add i32 %29, %2
  %31 = sdiv i32 %30, %22
  %32 = add i32 %17, -1
  %33 = add i32 %32, %3
  %34 = sdiv i32 %33, %17
  invoke void @_ZN4ncnn3Mat6createEiiiimPNS_9AllocatorE(ptr noundef nonnull align 8 dereferenceable(72) %1, i32 noundef %28, i32 noundef 36, i32 noundef %31, i32 noundef %34, i64 noundef 4, ptr noundef null)
          to label %35 unwind label %53

35:                                               ; preds = %5
  %36 = load i32, ptr %15, align 4, !tbaa !40
  call void @__kmpc_push_num_threads(ptr nonnull @2, i32 %14, i32 %36)
  call void (ptr, i32, ptr, ...) @__kmpc_fork_call(ptr nonnull @2, i32 9, ptr nonnull @_ZN4ncnnL37conv3x3s1_winograd43_transform_kernelERKNS_3MatERS0_iiRKNS_6OptionE.omp_outlined, ptr nonnull %12, ptr nonnull %9, ptr nonnull %13, ptr nonnull %8, ptr nonnull %11, ptr nonnull %7, ptr nonnull %0, ptr nonnull %6, ptr nonnull %1)
  %37 = load ptr, ptr %25, align 8, !tbaa !7
  %.not.i = icmp eq ptr %37, null
  br i1 %.not.i, label %_ZN4ncnn3MatD2Ev.exit8, label %38

38:                                               ; preds = %35
  %39 = atomicrmw add ptr %37, i32 -1 acq_rel, align 4
  %40 = icmp eq i32 %39, 1
  br i1 %40, label %41, label %_ZN4ncnn3MatD2Ev.exit8

41:                                               ; preds = %38
  %42 = load ptr, ptr %26, align 8, !tbaa !15
  %.not3.i = icmp eq ptr %42, null
  %43 = load ptr, ptr %13, align 8, !tbaa !16
  br i1 %.not3.i, label %48, label %44

44:                                               ; preds = %41
  %45 = load ptr, ptr %42, align 8, !tbaa !4
  %46 = getelementptr inbounds nuw i8, ptr %45, i64 24
  %47 = load ptr, ptr %46, align 8
  invoke void %47(ptr noundef nonnull align 8 dereferenceable(8) %42, ptr noundef %43)
          to label %_ZN4ncnn3MatD2Ev.exit8 unwind label %50

48:                                               ; preds = %41
  %.not.i14 = icmp eq ptr %43, null
  br i1 %.not.i14, label %_ZN4ncnn3MatD2Ev.exit8, label %49

49:                                               ; preds = %48
  call void @free(ptr noundef nonnull %43) #11
  br label %_ZN4ncnn3MatD2Ev.exit8

50:                                               ; preds = %44
  %51 = landingpad { ptr, i32 }
          catch ptr null
  %52 = extractvalue { ptr, i32 } %51, 0
  call void @__clang_call_terminate(ptr %52) #31
  unreachable

_ZN4ncnn3MatD2Ev.exit8:                           ; preds = %38, %35, %44, %48, %49
  call void @llvm.lifetime.end.p0(i64 72, ptr nonnull %13) #11
  call void @llvm.lifetime.end.p0(i64 4, ptr nonnull %12) #11
  call void @llvm.lifetime.end.p0(i64 4, ptr nonnull %11) #11
  call void @llvm.lifetime.end.p0(i64 4, ptr nonnull %10) #11
  call void @llvm.lifetime.end.p0(i64 4, ptr nonnull %9) #11
  call void @llvm.lifetime.end.p0(i64 4, ptr nonnull %8) #11
  call void @llvm.lifetime.end.p0(i64 4, ptr nonnull %7) #11
  ret void

53:                                               ; preds = %5
  %54 = landingpad { ptr, i32 }
          cleanup
  %55 = load ptr, ptr %25, align 8, !tbaa !7
  %.not.i9 = icmp eq ptr %55, null
  br i1 %.not.i9, label %_ZN4ncnn3MatD2Ev.exit, label %56

56:                                               ; preds = %53
  %57 = atomicrmw add ptr %55, i32 -1 acq_rel, align 4
  %58 = icmp eq i32 %57, 1
  br i1 %58, label %59, label %_ZN4ncnn3MatD2Ev.exit

59:                                               ; preds = %56
  %60 = load ptr, ptr %26, align 8, !tbaa !15
  %.not3.i10 = icmp eq ptr %60, null
  %61 = load ptr, ptr %13, align 8, !tbaa !16
  br i1 %.not3.i10, label %66, label %62

62:                                               ; preds = %59
  %63 = load ptr, ptr %60, align 8, !tbaa !4
  %64 = getelementptr inbounds nuw i8, ptr %63, i64 24
  %65 = load ptr, ptr %64, align 8
  invoke void %65(ptr noundef nonnull align 8 dereferenceable(8) %60, ptr noundef %61)
          to label %_ZN4ncnn3MatD2Ev.exit unwind label %68

66:                                               ; preds = %59
  %.not.i13 = icmp eq ptr %61, null
  br i1 %.not.i13, label %_ZN4ncnn3MatD2Ev.exit, label %67

67:                                               ; preds = %66
  call void @free(ptr noundef nonnull %61) #11
  br label %_ZN4ncnn3MatD2Ev.exit

68:                                               ; preds = %62
  %69 = landingpad { ptr, i32 }
          catch ptr null
  %70 = extractvalue { ptr, i32 } %69, 0
  call void @__clang_call_terminate(ptr %70) #31
  unreachable

_ZN4ncnn3MatD2Ev.exit:                            ; preds = %56, %53, %62, %66, %67
  call void @llvm.lifetime.end.p0(i64 72, ptr nonnull %13) #11
  call void @llvm.lifetime.end.p0(i64 4, ptr nonnull %12) #11
  call void @llvm.lifetime.end.p0(i64 4, ptr nonnull %11) #11
  call void @llvm.lifetime.end.p0(i64 4, ptr nonnull %10) #11
  call void @llvm.lifetime.end.p0(i64 4, ptr nonnull %9) #11
  call void @llvm.lifetime.end.p0(i64 4, ptr nonnull %8) #11
  call void @llvm.lifetime.end.p0(i64 4, ptr nonnull %7) #11
  resume { ptr, i32 } %54
}